target datalayout = "e-m:e-p270:32:32-p271:32:32-p272:64:64-i64:64-i128:128-f80:128-n8:16:32:64-S128"
target triple = "x86_64-pc-linux-gnu"

%struct.archive_write = type { %struct.archive, i32, i64, i64, ptr, i64, ptr, ptr, ptr, ptr, ptr, i32, i32, ptr, ptr, ptr, ptr, ptr, ptr, ptr, ptr, ptr, ptr, ptr, ptr, ptr, ptr }
%struct.archive = type { i32, i32, ptr, i32, ptr, i32, i32, ptr, %struct.archive_string, ptr, i32, i32, ptr, ptr, i64, i64, i64, i8, i64 }
%struct.archive_string = type { ptr, i64, i64 }
%struct.archive_write_filter = type { i64, ptr, ptr, ptr, ptr, ptr, ptr, ptr, ptr, ptr, ptr, i32, i32, i32, i32 }

; Function Attrs: nounwind uwtable
define internal ptr @filter_lookup(ptr noundef %0, i32 noundef %1) #0 {
  %3 = alloca ptr, align 8
  %4 = alloca ptr, align 8
  %5 = alloca i32, align 4
  %6 = alloca ptr, align 8
  %7 = alloca ptr, align 8
  %8 = alloca i32, align 4
  store ptr %0, ptr %4, align 8, !tbaa !26
  store i32 %1, ptr %5, align 4, !tbaa !28
  call void @llvm.lifetime.start.p0(i64 8, ptr %6) #9
  %9 = load ptr, ptr %4, align 8, !tbaa !26
  store ptr %9, ptr %6, align 8, !tbaa !4
  call void @llvm.lifetime.start.p0(i64 8, ptr %7) #9
  %10 = load ptr, ptr %6, align 8, !tbaa !4
  %11 = getelementptr inbounds nuw %struct.archive_write, ptr %10, i32 0, i32 13
  %12 = load ptr, ptr %11, align 8, !tbaa !37
  store ptr %12, ptr %7, align 8, !tbaa !33
  %13 = load i32, ptr %5, align 4, !tbaa !28
  %14 = icmp eq i32 %13, -1
  br i1 %14, label %15, label %19

15:                                               ; preds = %2
  %16 = load ptr, ptr %6, align 8, !tbaa !4
  %17 = getelementptr inbounds nuw %struct.archive_write, ptr %16, i32 0, i32 14
  %18 = load ptr, ptr %17, align 8, !tbaa !38
  store ptr %18, ptr %3, align 8
  store i32 1, ptr %8, align 4
  br label %40

19:                                               ; preds = %2
  %20 = load i32, ptr %5, align 4, !tbaa !28
  %21 = icmp slt i32 %20, 0
  br i1 %21, label %22, label %23

22:                                               ; preds = %19
  store ptr null, ptr %3, align 8
  store i32 1, ptr %8, align 4
  br label %40

23:                                               ; preds = %19
  br label %24

24:                                               ; preds = %32, %23
  %25 = load i32, ptr %5, align 4, !tbaa !28
  %26 = icmp sgt i32 %25, 0
  br i1 %26, label %27, label %30

27:                                               ; preds = %24
  %28 = load ptr, ptr %7, align 8, !tbaa !33
  %29 = icmp ne ptr %28, null
  br label %30

30:                                               ; preds = %27, %24
  %31 = phi i1 [ false, %24 ], [ %29, %27 ]
  br i1 %31, label %32, label %38

32:                                               ; preds = %30
  %33 = load ptr, ptr %7, align 8, !tbaa !33
  %34 = getelementptr inbounds nuw %struct.archive_write_filter, ptr %33, i32 0, i32 2
  %35 = load ptr, ptr %34, align 8, !tbaa !39
  store ptr %35, ptr %7, align 8, !tbaa !33
  %36 = load i32, ptr %5, align 4, !tbaa !28
  %37 = add nsw i32 %36, -1
  store i32 %37, ptr %5, align 4, !tbaa !28
  br label %24, !llvm.loop !83

38:                                               ; preds = %30
  %39 = load ptr, ptr %7, align 8, !tbaa !33
  store ptr %39, ptr %3, align 8
  store i32 1, ptr %8, align 4
  br label %40

40:                                               ; preds = %38, %22, %15
  call void @llvm.lifetime.end.p0(i64 8, ptr %7) #9
  call void @llvm.lifetime.end.p0(i64 8, ptr %6) #9
  %41 = load ptr, ptr %3, align 8
  ret ptr %41
}

; Function Attrs: nounwind uwtable
define internal i64 @_archive_filter_bytes(ptr noundef %0, i32 noundef %1) #0 {
  %3 = alloca ptr, align 8
  %4 = alloca i32, align 4
  %5 = alloca ptr, align 8
  store ptr %0, ptr %3, align 8, !tbaa !26
  store i32 %1, ptr %4, align 4, !tbaa !28
  call void @llvm.lifetime.start.p0(i64 8, ptr %5) #9
  %6 = load ptr, ptr %3, align 8, !tbaa !26
  %7 = load i32, ptr %4, align 4, !tbaa !28
  %8 = call ptr @filter_lookup(ptr noundef %6, i32 noundef %7)
  store ptr %8, ptr %5, align 8, !tbaa !33
  %9 = load ptr, ptr %5, align 8, !tbaa !33
  %10 = icmp eq ptr %9, null
  br i1 %10, label %11, label %12

11:                                               ; preds = %2
  br label %16

12:                                               ; preds = %2
  %13 = load ptr, ptr %5, align 8, !tbaa !33
  %14 = getelementptr inbounds nuw %struct.archive_write_filter, ptr %13, i32 0, i32 0
  %15 = load i64, ptr %14, align 8, !tbaa !42
  br label %16

16:                                               ; preds = %12, %11
  %17 = phi i64 [ -1, %11 ], [ %15, %12 ]
  call void @llvm.lifetime.end.p0(i64 8, ptr %5) #9
  ret i64 %17
}